target datalayout = "e-m:e-p270:32:32-p271:32:32-p272:64:64-i64:64-i128:128-f80:128-n8:16:32:64-S128"
target triple = "x86_64-pc-linux-gnu"

%struct.prte_attr_converter_t = type { i32, [10 x i8], i16, i16, ptr }

@converters = internal global [5 x %struct.prte_attr_converter_t] zeroinitializer, align 16

; Function Attrs: nounwind uwtable
define i32 @prte_attr_register(ptr noundef %0, i16 noundef zeroext %1, i16 noundef zeroext %2, ptr noundef %3) #0 {
  %5 = alloca i32, align 4
  %6 = alloca ptr, align 8
  %7 = alloca i16, align 2
  %8 = alloca i16, align 2
  %9 = alloca ptr, align 8
  %10 = alloca i32, align 4
  %11 = alloca i32, align 4
  store ptr %0, ptr %6, align 8, !tbaa !85
  store i16 %1, ptr %7, align 2, !tbaa !8
  store i16 %2, ptr %8, align 2, !tbaa !8
  store ptr %3, ptr %9, align 8, !tbaa !10
  call void @llvm.lifetime.start.p0(i64 4, ptr %10) #11
  store i32 0, ptr %10, align 4, !tbaa !25
  br label %12

12:                                               ; preds = %54, %4
  %13 = load i32, ptr %10, align 4, !tbaa !25
  %14 = icmp slt i32 %13, 5
  br i1 %14, label %15, label %57

15:                                               ; preds = %12
  %16 = load i32, ptr %10, align 4, !tbaa !25
  %17 = sext i32 %16 to i64
  %18 = getelementptr inbounds [5 x %struct.prte_attr_converter_t], ptr @converters, i64 0, i64 %17
  %19 = getelementptr inbounds nuw %struct.prte_attr_converter_t, ptr %18, i32 0, i32 0
  %20 = load i32, ptr %19, align 16, !tbaa !86
  %21 = icmp eq i32 0, %20
  br i1 %21, label %22, label %53

22:                                               ; preds = %15
  %23 = load i32, ptr %10, align 4, !tbaa !25
  %24 = sext i32 %23 to i64
  %25 = getelementptr inbounds [5 x %struct.prte_attr_converter_t], ptr @converters, i64 0, i64 %24
  %26 = getelementptr inbounds nuw %struct.prte_attr_converter_t, ptr %25, i32 0, i32 0
  store i32 1, ptr %26, align 16, !tbaa !86
  %27 = load i32, ptr %10, align 4, !tbaa !25
  %28 = sext i32 %27 to i64
  %29 = getelementptr inbounds [5 x %struct.prte_attr_converter_t], ptr @converters, i64 0, i64 %28
  %30 = getelementptr inbounds nuw %struct.prte_attr_converter_t, ptr %29, i32 0, i32 1
  %31 = getelementptr inbounds [10 x i8], ptr %30, i64 0, i64 0
  %32 = load ptr, ptr %6, align 8, !tbaa !85
  call void @pmix_string_copy(ptr noundef %31, ptr noundef %32, i64 noundef 10)
  %33 = load i32, ptr %10, align 4, !tbaa !25
  %34 = sext i32 %33 to i64
  %35 = getelementptr inbounds [5 x %struct.prte_attr_converter_t], ptr @converters, i64 0, i64 %34
  %36 = getelementptr inbounds nuw %struct.prte_attr_converter_t, ptr %35, i32 0, i32 1
  %37 = getelementptr inbounds [10 x i8], ptr %36, i64 0, i64 9
  store i8 0, ptr %37, align 1, !tbaa !33
  %38 = load i16, ptr %7, align 2, !tbaa !8
  %39 = load i32, ptr %10, align 4, !tbaa !25
  %40 = sext i32 %39 to i64
  %41 = getelementptr inbounds [5 x %struct.prte_attr_converter_t], ptr @converters, i64 0, i64 %40
  %42 = getelementptr inbounds nuw %struct.prte_attr_converter_t, ptr %41, i32 0, i32 2
  store i16 %38, ptr %42, align 2, !tbaa !88
  %43 = load i16, ptr %8, align 2, !tbaa !8
  %44 = load i32, ptr %10, align 4, !tbaa !25
  %45 = sext i32 %44 to i64
  %46 = getelementptr inbounds [5 x %struct.prte_attr_converter_t], ptr @converters, i64 0, i64 %45
  %47 = getelementptr inbounds nuw %struct.prte_attr_converter_t, ptr %46, i32 0, i32 3
  store i16 %43, ptr %47, align 16, !tbaa !89
  %48 = load ptr, ptr %9, align 8, !tbaa !10
  %49 = load i32, ptr %10, align 4, !tbaa !25
  %50 = sext i32 %49 to i64
  %51 = getelementptr inbounds [5 x %struct.prte_attr_converter_t], ptr @converters, i64 0, i64 %50
  %52 = getelementptr inbounds nuw %struct.prte_attr_converter_t, ptr %51, i32 0, i32 4
  store ptr %48, ptr %52, align 8, !tbaa !90
  store i32 0, ptr %5, align 4
  store i32 1, ptr %11, align 4
  br label %58

53:                                               ; preds = %15
  br label %54

54:                                               ; preds = %53
  %55 = load i32, ptr %10, align 4, !tbaa !25
  %56 = add nsw i32 %55, 1
  store i32 %56, ptr %10, align 4, !tbaa !25
  br label %12, !llvm.loop !91

57:                                               ; preds = %12
  store i32 -2, ptr %5, align 4
  store i32 1, ptr %11, align 4
  br label %58

58:                                               ; preds = %57, %22
  call void @llvm.lifetime.end.p0(i64 4, ptr %10) #11
  %59 = load i32, ptr %5, align 4
  ret i32 %59
}