; Function Attrs: nounwind uwtable
define range(i32 -2, 1) i32 @prte_attr_register(ptr noundef %0, i16 noundef zeroext %1, i16 noundef zeroext %2, ptr noundef %3) local_unnamed_addr #0 {
  br label %6

5:                                                ; preds = %6
  %indvars.iv.next = add nuw nsw i64 %indvars.iv, 1
  %exitcond.not = icmp eq i64 %indvars.iv.next, 5
  br i1 %exitcond.not, label %.loopexit, label %6, !llvm.loop !64

6:                                                ; preds = %4, %5
  %indvars.iv = phi i64 [ 0, %4 ], [ %indvars.iv.next, %5 ]
  %7 = getelementptr inbounds nuw [5 x %struct.prte_attr_converter_t], ptr @converters, i64 0, i64 %indvars.iv
  %8 = load i32, ptr %7, align 16, !tbaa !65
  %9 = icmp eq i32 %8, 0
  br i1 %9, label %10, label %5

10:                                               ; preds = %6
  store i32 1, ptr %7, align 16, !tbaa !65
  %11 = getelementptr inbounds nuw i8, ptr %7, i64 4
  tail call void @pmix_string_copy(ptr noundef nonnull %11, ptr noundef %0, i64 noundef 10) #13
  %12 = getelementptr inbounds nuw i8, ptr %7, i64 13
  store i8 0, ptr %12, align 1, !tbaa !24
  %13 = getelementptr inbounds nuw i8, ptr %7, i64 14
  store i16 %1, ptr %13, align 2, !tbaa !67
  %14 = getelementptr inbounds nuw i8, ptr %7, i64 16
  store i16 %2, ptr %14, align 16, !tbaa !68
  %15 = getelementptr inbounds nuw i8, ptr %7, i64 24
  store ptr %3, ptr %15, align 8, !tbaa !69
  br label %.loopexit

.loopexit:                                        ; preds = %5, %10
  %.013 = phi i32 [ 0, %10 ], [ -2, %5 ]
  ret i32 %.013
}